target datalayout = "e-m:e-p270:32:32-p271:32:32-p272:64:64-i64:64-i128:128-f80:128-n8:16:32:64-S128"
target triple = "x86_64-pc-linux-gnu"

%struct.bufferevent = type { ptr, ptr, %struct.event, %struct.event, ptr, ptr, %struct.event_watermark, %struct.event_watermark, ptr, ptr, ptr, ptr, %struct.timeval, %struct.timeval, i16 }
%struct.event = type { %struct.event_callback, %union.anon.0, i32, i16, i16, ptr, %union.anon.2, %struct.timeval }
%union.anon.0 = type { %struct.anon.1 }
%struct.anon.1 = type { ptr, ptr }
%union.anon.2 = type { %struct.anon.3 }
%struct.anon.3 = type { %struct.anon.4, %struct.timeval }
%struct.anon.4 = type { ptr, ptr }
%struct.event_watermark = type { i64, i64 }
%struct.timeval = type { i64, i64 }
%struct.event_callback = type { %struct.anon, i16, i8, i8, %union.anon, ptr }
%struct.anon = type { ptr, ptr }
%union.anon = type { ptr }

; Function Attrs: nounwind uwtable
define internal i32 @bio_bufferevent_write(ptr noundef %0, ptr noundef %1, i64 noundef %2) #0 {
  %4 = alloca i32, align 4
  %5 = alloca ptr, align 8
  %6 = alloca ptr, align 8
  %7 = alloca i64, align 8
  %8 = alloca ptr, align 8
  %9 = alloca ptr, align 8
  %10 = alloca i64, align 8
  %11 = alloca i32, align 4
  store ptr %0, ptr %5, align 8
  store ptr %1, ptr %6, align 8
  store i64 %2, ptr %7, align 8
  call void @llvm.lifetime.start.p0(i64 8, ptr %8) #3
  %12 = load ptr, ptr %5, align 8
  store ptr %12, ptr %8, align 8
  call void @llvm.lifetime.start.p0(i64 8, ptr %9) #3
  call void @llvm.lifetime.start.p0(i64 8, ptr %10) #3
  %13 = load ptr, ptr %8, align 8
  %14 = icmp ne ptr %13, null
  br i1 %14, label %16, label %15

15:                                               ; preds = %3
  store i32 -69, ptr %4, align 4
  store i32 1, ptr %11, align 4
  br label %60

16:                                               ; preds = %3
  %17 = load ptr, ptr %8, align 8
  %18 = call ptr @bufferevent_get_output(ptr noundef %17)
  store ptr %18, ptr %9, align 8
  %19 = load ptr, ptr %9, align 8
  %20 = call i64 @evbuffer_get_length(ptr noundef %19)
  store i64 %20, ptr %10, align 8
  %21 = load ptr, ptr %8, align 8
  %22 = getelementptr inbounds nuw %struct.bufferevent, ptr %21, i32 0, i32 7
  %23 = getelementptr inbounds nuw %struct.event_watermark, ptr %22, i32 0, i32 1
  %24 = load i64, ptr %23, align 8
  %25 = icmp ne i64 %24, 0
  br i1 %25, label %26, label %50

26:                                               ; preds = %16
  %27 = load ptr, ptr %8, align 8
  %28 = getelementptr inbounds nuw %struct.bufferevent, ptr %27, i32 0, i32 7
  %29 = getelementptr inbounds nuw %struct.event_watermark, ptr %28, i32 0, i32 1
  %30 = load i64, ptr %29, align 8
  %31 = load i64, ptr %10, align 8
  %32 = load i64, ptr %7, align 8
  %33 = add i64 %31, %32
  %34 = icmp ule i64 %30, %33
  br i1 %34, label %35, label %50

35:                                               ; preds = %26
  %36 = load ptr, ptr %8, align 8
  %37 = getelementptr inbounds nuw %struct.bufferevent, ptr %36, i32 0, i32 7
  %38 = getelementptr inbounds nuw %struct.event_watermark, ptr %37, i32 0, i32 1
  %39 = load i64, ptr %38, align 8
  %40 = load i64, ptr %10, align 8
  %41 = icmp ule i64 %39, %40
  br i1 %41, label %42, label %43

42:                                               ; preds = %35
  store i32 -26752, ptr %4, align 4
  store i32 1, ptr %11, align 4
  br label %60

43:                                               ; preds = %35
  %44 = load ptr, ptr %8, align 8
  %45 = getelementptr inbounds nuw %struct.bufferevent, ptr %44, i32 0, i32 7
  %46 = getelementptr inbounds nuw %struct.event_watermark, ptr %45, i32 0, i32 1
  %47 = load i64, ptr %46, align 8
  %48 = load i64, ptr %10, align 8
  %49 = sub i64 %47, %48
  store i64 %49, ptr %7, align 8
  br label %50

50:                                               ; preds = %43, %26, %16
  br label %51

51:                                               ; preds = %50
  br label %52

52:                                               ; preds = %51
  br label %53

53:                                               ; preds = %52
  %54 = load ptr, ptr %9, align 8
  %55 = load ptr, ptr %6, align 8
  %56 = load i64, ptr %7, align 8
  %57 = call i32 @evbuffer_add(ptr noundef %54, ptr noundef %55, i64 noundef %56)
  %58 = load i64, ptr %7, align 8
  %59 = trunc i64 %58 to i32
  store i32 %59, ptr %4, align 4
  store i32 1, ptr %11, align 4
  br label %60

60:                                               ; preds = %53, %42, %15
  call void @llvm.lifetime.end.p0(i64 8, ptr %10) #3
  call void @llvm.lifetime.end.p0(i64 8, ptr %9) #3
  call void @llvm.lifetime.end.p0(i64 8, ptr %8) #3
  %61 = load i32, ptr %4, align 4
  ret i32 %61
}