; Function Attrs: nounwind uwtable
define internal noundef i32 @bio_bufferevent_write(ptr noundef %0, ptr noundef %1, i64 noundef %2) #0 {
  %.not = icmp eq ptr %0, null
  br i1 %.not, label %17, label %4

4:                                                ; preds = %3
  %5 = tail call ptr @bufferevent_get_output(ptr noundef nonnull %0) #5
  %6 = tail call i64 @evbuffer_get_length(ptr noundef %5) #5
  %.fr = freeze i64 %6
  %7 = getelementptr inbounds nuw i8, ptr %0, i64 296
  %8 = load i64, ptr %7, align 8
  %9 = add i64 %.fr, %2
  %10 = add i64 %8, -1
  %or.cond.not = icmp ult i64 %10, %9
  br i1 %or.cond.not, label %11, label %14

11:                                               ; preds = %4
  %.not22 = icmp ugt i64 %8, %.fr
  br i1 %.not22, label %12, label %17

12:                                               ; preds = %11
  %13 = sub nuw i64 %8, %.fr
  br label %14

14:                                               ; preds = %4, %12
  %.016 = phi i64 [ %13, %12 ], [ %2, %4 ]
  %15 = tail call i32 @evbuffer_add(ptr noundef %5, ptr noundef %1, i64 noundef %.016) #5
  %16 = trunc i64 %.016 to i32
  br label %17

17:                                               ; preds = %11, %3, %14
  %.0 = phi i32 [ %16, %14 ], [ -69, %3 ], [ -26752, %11 ]
  ret i32 %.0
}